; Function Attrs: nounwind uwtable
define noundef ptr @l_Lake_instMinPos___boxed(ptr noundef %0, ptr noundef %1) local_unnamed_addr #1 {
  %3 = ptrtoint ptr %0 to i64
  %4 = and i64 %3, 1
  %.not.i8 = icmp eq i64 %4, 0
  br i1 %.not.i8, label %lean_nat_le.exit.thread12.i, label %5, !prof !15

5:                                                ; preds = %2
  %6 = ptrtoint ptr %1 to i64
  %7 = and i64 %6, 1
  %.not14.i = icmp eq i64 %7, 0
  br i1 %.not14.i, label %lean_nat_le.exit.i, label %lean_nat_le.exit.thread.i, !prof !15

lean_nat_le.exit.i:                               ; preds = %5
  %8 = tail call zeroext i1 @lean_nat_big_le(ptr noundef %0, ptr noundef %1) #9
  br i1 %8, label %l_Lake_instMinPos.exit, label %.thread.i

lean_nat_le.exit.thread12.i:                      ; preds = %2
  %9 = tail call zeroext i1 @lean_nat_big_le(ptr noundef %0, ptr noundef %1) #9
  br i1 %9, label %17, label %10

lean_nat_le.exit.thread.i:                        ; preds = %5
  %.not15.i = icmp ugt ptr %0, %1
  %spec.select.i = select i1 %.not15.i, ptr %1, ptr %0
  br label %l_Lake_instMinPos.exit

10:                                               ; preds = %lean_nat_le.exit.thread12.i
  %.pre.i = ptrtoint ptr %1 to i64
  %.pre17.i = and i64 %.pre.i, 1
  %11 = icmp eq i64 %.pre17.i, 0
  br i1 %11, label %.thread.i, label %l_Lake_instMinPos.exit

.thread.i:                                        ; preds = %10, %lean_nat_le.exit.i
  %.val.i.i = load i32, ptr %1, align 4, !tbaa !4
  %12 = icmp sgt i32 %.val.i.i, 0
  br i1 %12, label %13, label %15, !prof !9

13:                                               ; preds = %.thread.i
  %14 = add nuw i32 %.val.i.i, 1
  store i32 %14, ptr %1, align 4, !tbaa !4
  br label %l_Lake_instMinPos.exit

15:                                               ; preds = %.thread.i
  %.not.i.i = icmp eq i32 %.val.i.i, 0
  br i1 %.not.i.i, label %l_Lake_instMinPos.exit, label %16

16:                                               ; preds = %15
  tail call void @lean_inc_ref_cold(ptr noundef nonnull %1) #9
  br label %l_Lake_instMinPos.exit

17:                                               ; preds = %lean_nat_le.exit.thread12.i
  %.val.i8.i = load i32, ptr %0, align 4, !tbaa !4
  %18 = icmp sgt i32 %.val.i8.i, 0
  br i1 %18, label %19, label %21, !prof !9

19:                                               ; preds = %17
  %20 = add nuw i32 %.val.i8.i, 1
  store i32 %20, ptr %0, align 4, !tbaa !4
  br label %l_Lake_instMinPos.exit

21:                                               ; preds = %17
  %.not.i9.i = icmp eq i32 %.val.i8.i, 0
  br i1 %.not.i9.i, label %l_Lake_instMinPos.exit, label %22

22:                                               ; preds = %21
  tail call void @lean_inc_ref_cold(ptr noundef nonnull %0) #9
  br label %l_Lake_instMinPos.exit

l_Lake_instMinPos.exit:                           ; preds = %lean_nat_le.exit.i, %lean_nat_le.exit.thread.i, %10, %13, %15, %16, %19, %21, %22
  %.0.i = phi ptr [ %1, %16 ], [ %1, %15 ], [ %1, %13 ], [ %1, %10 ], [ %0, %22 ], [ %0, %21 ], [ %0, %19 ], [ %0, %lean_nat_le.exit.i ], [ %spec.select.i, %lean_nat_le.exit.thread.i ]
  %23 = ptrtoint ptr %1 to i64
  %24 = and i64 %23, 1
  %.not = icmp eq i64 %24, 0
  br i1 %.not, label %25, label %lean_dec.exit5

25:                                               ; preds = %l_Lake_instMinPos.exit
  %26 = load i32, ptr %1, align 4, !tbaa !4
  %27 = icmp sgt i32 %26, 1
  br i1 %27, label %28, label %30, !prof !9

28:                                               ; preds = %25
  %29 = add nsw i32 %26, -1
  store i32 %29, ptr %1, align 4, !tbaa !4
  br label %lean_dec.exit5

30:                                               ; preds = %25
  %.not.i = icmp eq i32 %26, 0
  br i1 %.not.i, label %lean_dec.exit5, label %31

31:                                               ; preds = %30
  tail call void @lean_dec_ref_cold(ptr noundef nonnull %1) #9
  br label %lean_dec.exit5

lean_dec.exit5:                                   ; preds = %31, %30, %28, %l_Lake_instMinPos.exit
  br i1 %.not.i8, label %32, label %lean_dec.exit

32:                                               ; preds = %lean_dec.exit5
  %33 = load i32, ptr %0, align 4, !tbaa !4
  %34 = icmp sgt i32 %33, 1
  br i1 %34, label %35, label %37, !prof !9

35:                                               ; preds = %32
  %36 = add nsw i32 %33, -1
  store i32 %36, ptr %0, align 4, !tbaa !4
  br label %lean_dec.exit

37:                                               ; preds = %32
  %.not.i6 = icmp eq i32 %33, 0
  br i1 %.not.i6, label %lean_dec.exit, label %38

38:                                               ; preds = %37
  tail call void @lean_dec_ref_cold(ptr noundef nonnull %0) #9
  br label %lean_dec.exit

lean_dec.exit:                                    ; preds = %38, %37, %35, %lean_dec.exit5
  ret ptr %.0.i
}